target datalayout = "e-m:e-p270:32:32-p271:32:32-p272:64:64-i64:64-i128:128-f80:128-n8:16:32:64-S128"
target triple = "x86_64-pc-linux-gnu"

%struct.internal_hooks = type { ptr, ptr, ptr }
%struct.cJSON = type { ptr, ptr, ptr, i32, ptr, i32, double, ptr }

@global_hooks = internal global %struct.internal_hooks { ptr @malloc, ptr @free, ptr @realloc }, align 8

; Function Attrs: nounwind sspstrong uwtable
define internal void @suffix_object(ptr noundef %0, ptr noundef %1) #0 {
  %3 = alloca ptr, align 8
  %4 = alloca ptr, align 8
  store ptr %0, ptr %3, align 8, !tbaa !11
  store ptr %1, ptr %4, align 8, !tbaa !11
  %5 = load ptr, ptr %4, align 8, !tbaa !11
  %6 = load ptr, ptr %3, align 8, !tbaa !11
  %7 = getelementptr inbounds nuw %struct.cJSON, ptr %6, i32 0, i32 0
  store ptr %5, ptr %7, align 8, !tbaa !28
  %8 = load ptr, ptr %3, align 8, !tbaa !11
  %9 = load ptr, ptr %4, align 8, !tbaa !11
  %10 = getelementptr inbounds nuw %struct.cJSON, ptr %9, i32 0, i32 1
  store ptr %8, ptr %10, align 8, !tbaa !54
  ret void
}

; Function Attrs: nounwind sspstrong uwtable
define internal i32 @add_item_to_array(ptr noundef %0, ptr noundef %1) #0 {
  %3 = alloca i32, align 4
  %4 = alloca ptr, align 8
  %5 = alloca ptr, align 8
  %6 = alloca ptr, align 8
  %7 = alloca i32, align 4
  store ptr %0, ptr %4, align 8, !tbaa !11
  store ptr %1, ptr %5, align 8, !tbaa !11
  call void @llvm.lifetime.start.p0(i64 8, ptr %6) #10
  store ptr null, ptr %6, align 8, !tbaa !11
  %8 = load ptr, ptr %5, align 8, !tbaa !11
  %9 = icmp eq ptr %8, null
  br i1 %9, label %17, label %10

10:                                               ; preds = %2
  %11 = load ptr, ptr %4, align 8, !tbaa !11
  %12 = icmp eq ptr %11, null
  br i1 %12, label %17, label %13

13:                                               ; preds = %10
  %14 = load ptr, ptr %4, align 8, !tbaa !11
  %15 = load ptr, ptr %5, align 8, !tbaa !11
  %16 = icmp eq ptr %14, %15
  br i1 %16, label %17, label %18

17:                                               ; preds = %13, %10, %2
  store i32 0, ptr %3, align 4
  store i32 1, ptr %7, align 4
  br label %50

18:                                               ; preds = %13
  %19 = load ptr, ptr %4, align 8, !tbaa !11
  %20 = getelementptr inbounds nuw %struct.cJSON, ptr %19, i32 0, i32 2
  %21 = load ptr, ptr %20, align 8, !tbaa !29
  store ptr %21, ptr %6, align 8, !tbaa !11
  %22 = load ptr, ptr %6, align 8, !tbaa !11
  %23 = icmp eq ptr %22, null
  br i1 %23, label %24, label %33

24:                                               ; preds = %18
  %25 = load ptr, ptr %5, align 8, !tbaa !11
  %26 = load ptr, ptr %4, align 8, !tbaa !11
  %27 = getelementptr inbounds nuw %struct.cJSON, ptr %26, i32 0, i32 2
  store ptr %25, ptr %27, align 8, !tbaa !29
  %28 = load ptr, ptr %5, align 8, !tbaa !11
  %29 = load ptr, ptr %5, align 8, !tbaa !11
  %30 = getelementptr inbounds nuw %struct.cJSON, ptr %29, i32 0, i32 1
  store ptr %28, ptr %30, align 8, !tbaa !54
  %31 = load ptr, ptr %5, align 8, !tbaa !11
  %32 = getelementptr inbounds nuw %struct.cJSON, ptr %31, i32 0, i32 0
  store ptr null, ptr %32, align 8, !tbaa !28
  br label %49

33:                                               ; preds = %18
  %34 = load ptr, ptr %6, align 8, !tbaa !11
  %35 = getelementptr inbounds nuw %struct.cJSON, ptr %34, i32 0, i32 1
  %36 = load ptr, ptr %35, align 8, !tbaa !54
  %37 = icmp ne ptr %36, null
  br i1 %37, label %38, label %48

38:                                               ; preds = %33
  %39 = load ptr, ptr %6, align 8, !tbaa !11
  %40 = getelementptr inbounds nuw %struct.cJSON, ptr %39, i32 0, i32 1
  %41 = load ptr, ptr %40, align 8, !tbaa !54
  %42 = load ptr, ptr %5, align 8, !tbaa !11
  call void @suffix_object(ptr noundef %41, ptr noundef %42)
  %43 = load ptr, ptr %5, align 8, !tbaa !11
  %44 = load ptr, ptr %4, align 8, !tbaa !11
  %45 = getelementptr inbounds nuw %struct.cJSON, ptr %44, i32 0, i32 2
  %46 = load ptr, ptr %45, align 8, !tbaa !29
  %47 = getelementptr inbounds nuw %struct.cJSON, ptr %46, i32 0, i32 1
  store ptr %43, ptr %47, align 8, !tbaa !54
  br label %48

48:                                               ; preds = %38, %33
  br label %49

49:                                               ; preds = %48, %24
  store i32 1, ptr %3, align 4
  store i32 1, ptr %7, align 4
  br label %50

50:                                               ; preds = %49, %17
  call void @llvm.lifetime.end.p0(i64 8, ptr %6) #10
  %51 = load i32, ptr %3, align 4
  ret i32 %51
}

; Function Attrs: nounwind sspstrong uwtable
define internal ptr @cJSON_strdup(ptr noundef %0, ptr noundef %1) #0 {
  %3 = alloca ptr, align 8
  %4 = alloca ptr, align 8
  %5 = alloca ptr, align 8
  %6 = alloca i64, align 8
  %7 = alloca ptr, align 8
  %8 = alloca i32, align 4
  store ptr %0, ptr %4, align 8, !tbaa !33
  store ptr %1, ptr %5, align 8, !tbaa !35
  call void @llvm.lifetime.start.p0(i64 8, ptr %6) #10
  store i64 0, ptr %6, align 8, !tbaa !34
  call void @llvm.lifetime.start.p0(i64 8, ptr %7) #10
  store ptr null, ptr %7, align 8, !tbaa !33
  %9 = load ptr, ptr %4, align 8, !tbaa !33
  %10 = icmp eq ptr %9, null
  br i1 %10, label %11, label %12

11:                                               ; preds = %2
  store ptr null, ptr %3, align 8
  store i32 1, ptr %8, align 4
  br label %29

12:                                               ; preds = %2
  %13 = load ptr, ptr %4, align 8, !tbaa !33
  %14 = call i64 @strlen(ptr noundef %13) #11
  %15 = add i64 %14, 1
  store i64 %15, ptr %6, align 8, !tbaa !34
  %16 = load ptr, ptr %5, align 8, !tbaa !35
  %17 = getelementptr inbounds nuw %struct.internal_hooks, ptr %16, i32 0, i32 0
  %18 = load ptr, ptr %17, align 8, !tbaa !21
  %19 = load i64, ptr %6, align 8, !tbaa !34
  %20 = call ptr %18(i64 noundef %19)
  store ptr %20, ptr %7, align 8, !tbaa !33
  %21 = load ptr, ptr %7, align 8, !tbaa !33
  %22 = icmp eq ptr %21, null
  br i1 %22, label %23, label %24

23:                                               ; preds = %12
  store ptr null, ptr %3, align 8
  store i32 1, ptr %8, align 4
  br label %29

24:                                               ; preds = %12
  %25 = load ptr, ptr %7, align 8, !tbaa !33
  %26 = load ptr, ptr %4, align 8, !tbaa !33
  %27 = load i64, ptr %6, align 8, !tbaa !34
  call void @llvm.memcpy.p0.p0.i64(ptr align 1 %25, ptr align 1 %26, i64 %27, i1 false)
  %28 = load ptr, ptr %7, align 8, !tbaa !33
  store ptr %28, ptr %3, align 8
  store i32 1, ptr %8, align 4
  br label %29

29:                                               ; preds = %24, %23, %11
  call void @llvm.lifetime.end.p0(i64 8, ptr %7) #10
  call void @llvm.lifetime.end.p0(i64 8, ptr %6) #10
  %30 = load ptr, ptr %3, align 8
  ret ptr %30
}

; Function Attrs: nounwind sspstrong uwtable
define internal ptr @cast_away_const(ptr noundef %0) #0 {
  %2 = alloca ptr, align 8
  store ptr %0, ptr %2, align 8, !tbaa !37
  %3 = load ptr, ptr %2, align 8, !tbaa !37
  ret ptr %3
}

; Function Attrs: nounwind sspstrong uwtable
define internal ptr @cJSON_New_Item(ptr noundef %0) #0 {
  %2 = alloca ptr, align 8
  %3 = alloca ptr, align 8
  store ptr %0, ptr %2, align 8, !tbaa !35
  call void @llvm.lifetime.start.p0(i64 8, ptr %3) #10
  %4 = load ptr, ptr %2, align 8, !tbaa !35
  %5 = getelementptr inbounds nuw %struct.internal_hooks, ptr %4, i32 0, i32 0
  %6 = load ptr, ptr %5, align 8, !tbaa !21
  %7 = call ptr %6(i64 noundef 64)
  store ptr %7, ptr %3, align 8, !tbaa !11
  %8 = load ptr, ptr %3, align 8, !tbaa !11
  %9 = icmp ne ptr %8, null
  br i1 %9, label %10, label %12

10:                                               ; preds = %1
  %11 = load ptr, ptr %3, align 8, !tbaa !11
  call void @llvm.memset.p0.i64(ptr align 8 %11, i8 0, i64 64, i1 false)
  br label %12

12:                                               ; preds = %10, %1
  %13 = load ptr, ptr %3, align 8, !tbaa !11
  call void @llvm.lifetime.end.p0(i64 8, ptr %3) #10
  ret ptr %13
}

; Function Attrs: nounwind sspstrong uwtable
define internal i32 @add_item_to_object(ptr noundef %0, ptr noundef %1, ptr noundef %2, ptr noundef %3, i32 noundef %4) #0 {
  %6 = alloca i32, align 4
  %7 = alloca ptr, align 8
  %8 = alloca ptr, align 8
  %9 = alloca ptr, align 8
  %10 = alloca ptr, align 8
  %11 = alloca i32, align 4
  %12 = alloca ptr, align 8
  %13 = alloca i32, align 4
  %14 = alloca i32, align 4
  store ptr %0, ptr %7, align 8, !tbaa !11
  store ptr %1, ptr %8, align 8, !tbaa !33
  store ptr %2, ptr %9, align 8, !tbaa !11
  store ptr %3, ptr %10, align 8, !tbaa !35
  store i32 %4, ptr %11, align 4, !tbaa !40
  call void @llvm.lifetime.start.p0(i64 8, ptr %12) #10
  store ptr null, ptr %12, align 8, !tbaa !33
  call void @llvm.lifetime.start.p0(i64 4, ptr %13) #10
  store i32 0, ptr %13, align 4, !tbaa !40
  %15 = load ptr, ptr %7, align 8, !tbaa !11
  %16 = icmp eq ptr %15, null
  br i1 %16, label %27, label %17

17:                                               ; preds = %5
  %18 = load ptr, ptr %8, align 8, !tbaa !33
  %19 = icmp eq ptr %18, null
  br i1 %19, label %27, label %20

20:                                               ; preds = %17
  %21 = load ptr, ptr %9, align 8, !tbaa !11
  %22 = icmp eq ptr %21, null
  br i1 %22, label %27, label %23

23:                                               ; preds = %20
  %24 = load ptr, ptr %7, align 8, !tbaa !11
  %25 = load ptr, ptr %9, align 8, !tbaa !11
  %26 = icmp eq ptr %24, %25
  br i1 %26, label %27, label %28

27:                                               ; preds = %23, %20, %17, %5
  store i32 0, ptr %6, align 4
  store i32 1, ptr %14, align 4
  br label %78

28:                                               ; preds = %23
  %29 = load i32, ptr %11, align 4, !tbaa !40
  %30 = icmp ne i32 %29, 0
  br i1 %30, label %31, label %38

31:                                               ; preds = %28
  %32 = load ptr, ptr %8, align 8, !tbaa !33
  %33 = call ptr @cast_away_const(ptr noundef %32)
  store ptr %33, ptr %12, align 8, !tbaa !33
  %34 = load ptr, ptr %9, align 8, !tbaa !11
  %35 = getelementptr inbounds nuw %struct.cJSON, ptr %34, i32 0, i32 3
  %36 = load i32, ptr %35, align 8, !tbaa !17
  %37 = or i32 %36, 512
  store i32 %37, ptr %13, align 4, !tbaa !40
  br label %50

38:                                               ; preds = %28
  %39 = load ptr, ptr %8, align 8, !tbaa !33
  %40 = load ptr, ptr %10, align 8, !tbaa !35
  %41 = call ptr @cJSON_strdup(ptr noundef %39, ptr noundef %40)
  store ptr %41, ptr %12, align 8, !tbaa !33
  %42 = load ptr, ptr %12, align 8, !tbaa !33
  %43 = icmp eq ptr %42, null
  br i1 %43, label %44, label %45

44:                                               ; preds = %38
  store i32 0, ptr %6, align 4
  store i32 1, ptr %14, align 4
  br label %78

45:                                               ; preds = %38
  %46 = load ptr, ptr %9, align 8, !tbaa !11
  %47 = getelementptr inbounds nuw %struct.cJSON, ptr %46, i32 0, i32 3
  %48 = load i32, ptr %47, align 8, !tbaa !17
  %49 = and i32 %48, -513
  store i32 %49, ptr %13, align 4, !tbaa !40
  br label %50

50:                                               ; preds = %45, %31
  %51 = load ptr, ptr %9, align 8, !tbaa !11
  %52 = getelementptr inbounds nuw %struct.cJSON, ptr %51, i32 0, i32 3
  %53 = load i32, ptr %52, align 8, !tbaa !17
  %54 = and i32 %53, 512
  %55 = icmp ne i32 %54, 0
  br i1 %55, label %68, label %56

56:                                               ; preds = %50
  %57 = load ptr, ptr %9, align 8, !tbaa !11
  %58 = getelementptr inbounds nuw %struct.cJSON, ptr %57, i32 0, i32 7
  %59 = load ptr, ptr %58, align 8, !tbaa !30
  %60 = icmp ne ptr %59, null
  br i1 %60, label %61, label %68

61:                                               ; preds = %56
  %62 = load ptr, ptr %10, align 8, !tbaa !35
  %63 = getelementptr inbounds nuw %struct.internal_hooks, ptr %62, i32 0, i32 1
  %64 = load ptr, ptr %63, align 8, !tbaa !23
  %65 = load ptr, ptr %9, align 8, !tbaa !11
  %66 = getelementptr inbounds nuw %struct.cJSON, ptr %65, i32 0, i32 7
  %67 = load ptr, ptr %66, align 8, !tbaa !30
  call void %64(ptr noundef %67)
  br label %68

68:                                               ; preds = %61, %56, %50
  %69 = load ptr, ptr %12, align 8, !tbaa !33
  %70 = load ptr, ptr %9, align 8, !tbaa !11
  %71 = getelementptr inbounds nuw %struct.cJSON, ptr %70, i32 0, i32 7
  store ptr %69, ptr %71, align 8, !tbaa !30
  %72 = load i32, ptr %13, align 4, !tbaa !40
  %73 = load ptr, ptr %9, align 8, !tbaa !11
  %74 = getelementptr inbounds nuw %struct.cJSON, ptr %73, i32 0, i32 3
  store i32 %72, ptr %74, align 8, !tbaa !17
  %75 = load ptr, ptr %7, align 8, !tbaa !11
  %76 = load ptr, ptr %9, align 8, !tbaa !11
  %77 = call i32 @add_item_to_array(ptr noundef %75, ptr noundef %76)
  store i32 %77, ptr %6, align 4
  store i32 1, ptr %14, align 4
  br label %78

78:                                               ; preds = %68, %44, %27
  call void @llvm.lifetime.end.p0(i64 4, ptr %13) #10
  call void @llvm.lifetime.end.p0(i64 8, ptr %12) #10
  %79 = load i32, ptr %6, align 4
  ret i32 %79
}

; Function Attrs: nounwind sspstrong uwtable
define ptr @cJSON_CreateNumber(double noundef %0) #0 {
  %2 = alloca double, align 8
  %3 = alloca ptr, align 8
  store double %0, ptr %2, align 8, !tbaa !31
  call void @llvm.lifetime.start.p0(i64 8, ptr %3) #10
  %4 = call ptr @cJSON_New_Item(ptr noundef @global_hooks)
  store ptr %4, ptr %3, align 8, !tbaa !11
  %5 = load ptr, ptr %3, align 8, !tbaa !11
  %6 = icmp ne ptr %5, null
  br i1 %6, label %7, label %31

7:                                                ; preds = %1
  %8 = load ptr, ptr %3, align 8, !tbaa !11
  %9 = getelementptr inbounds nuw %struct.cJSON, ptr %8, i32 0, i32 3
  store i32 8, ptr %9, align 8, !tbaa !17
  %10 = load double, ptr %2, align 8, !tbaa !31
  %11 = load ptr, ptr %3, align 8, !tbaa !11
  %12 = getelementptr inbounds nuw %struct.cJSON, ptr %11, i32 0, i32 6
  store double %10, ptr %12, align 8, !tbaa !18
  %13 = load double, ptr %2, align 8, !tbaa !31
  %14 = fcmp oge double %13, 0x41DFFFFFFFC00000
  br i1 %14, label %15, label %18

15:                                               ; preds = %7
  %16 = load ptr, ptr %3, align 8, !tbaa !11
  %17 = getelementptr inbounds nuw %struct.cJSON, ptr %16, i32 0, i32 5
  store i32 2147483647, ptr %17, align 8, !tbaa !32
  br label %30

18:                                               ; preds = %7
  %19 = load double, ptr %2, align 8, !tbaa !31
  %20 = fcmp ole double %19, 0xC1E0000000000000
  br i1 %20, label %21, label %24

21:                                               ; preds = %18
  %22 = load ptr, ptr %3, align 8, !tbaa !11
  %23 = getelementptr inbounds nuw %struct.cJSON, ptr %22, i32 0, i32 5
  store i32 -2147483648, ptr %23, align 8, !tbaa !32
  br label %29

24:                                               ; preds = %18
  %25 = load double, ptr %2, align 8, !tbaa !31
  %26 = fptosi double %25 to i32
  %27 = load ptr, ptr %3, align 8, !tbaa !11
  %28 = getelementptr inbounds nuw %struct.cJSON, ptr %27, i32 0, i32 5
  store i32 %26, ptr %28, align 8, !tbaa !32
  br label %29

29:                                               ; preds = %24, %21
  br label %30

30:                                               ; preds = %29, %15
  br label %31

31:                                               ; preds = %30, %1
  %32 = load ptr, ptr %3, align 8, !tbaa !11
  call void @llvm.lifetime.end.p0(i64 8, ptr %3) #10
  ret ptr %32
}

; Function Attrs: nounwind sspstrong uwtable
define ptr @cJSON_AddNumberToObject(ptr noundef %0, ptr noundef %1, double noundef %2) #0 {
  %4 = alloca ptr, align 8
  %5 = alloca ptr, align 8
  %6 = alloca ptr, align 8
  %7 = alloca double, align 8
  %8 = alloca ptr, align 8
  %9 = alloca i32, align 4
  store ptr %0, ptr %5, align 8, !tbaa !11
  store ptr %1, ptr %6, align 8, !tbaa !33
  store double %2, ptr %7, align 8, !tbaa !31
  call void @llvm.lifetime.start.p0(i64 8, ptr %8) #10
  %10 = load double, ptr %7, align 8, !tbaa !31
  %11 = call ptr @cJSON_CreateNumber(double noundef %10)
  store ptr %11, ptr %8, align 8, !tbaa !11
  %12 = load ptr, ptr %5, align 8, !tbaa !11
  %13 = load ptr, ptr %6, align 8, !tbaa !33
  %14 = load ptr, ptr %8, align 8, !tbaa !11
  %15 = call i32 @add_item_to_object(ptr noundef %12, ptr noundef %13, ptr noundef %14, ptr noundef @global_hooks, i32 noundef 0)
  %16 = icmp ne i32 %15, 0
  br i1 %16, label %17, label %19

17:                                               ; preds = %3
  %18 = load ptr, ptr %8, align 8, !tbaa !11
  store ptr %18, ptr %4, align 8
  store i32 1, ptr %9, align 4
  br label %21

19:                                               ; preds = %3
  %20 = load ptr, ptr %8, align 8, !tbaa !11
  call void @cJSON_Delete(ptr noundef %20)
  store ptr null, ptr %4, align 8
  store i32 1, ptr %9, align 4
  br label %21

21:                                               ; preds = %19, %17
  call void @llvm.lifetime.end.p0(i64 8, ptr %8) #10
  %22 = load ptr, ptr %4, align 8
  ret ptr %22
}