; Function Attrs: nounwind sspstrong uwtable
define ptr @cJSON_AddNumberToObject(ptr noundef %0, ptr noundef readonly %1, double noundef %2) local_unnamed_addr #8 {
  %global_hooks.val.i = load ptr, ptr @global_hooks, align 8, !tbaa !18
  %4 = tail call ptr %global_hooks.val.i(i64 noundef 64) #31
  %.not.i.i = icmp eq ptr %4, null
  br i1 %.not.i.i, label %cJSON_CreateNumber.exit.thread, label %5

5:                                                ; preds = %3
  tail call void @llvm.memset.p0.i64(ptr noundef nonnull align 8 dereferenceable(64) %4, i8 0, i64 64, i1 false)
  %6 = getelementptr inbounds nuw i8, ptr %4, i64 24
  store i32 8, ptr %6, align 8, !tbaa !11
  %7 = getelementptr inbounds nuw i8, ptr %4, i64 48
  store double %2, ptr %7, align 8, !tbaa !17
  %8 = fcmp ult double %2, 0x41DFFFFFFFC00000
  br i1 %8, label %9, label %cJSON_CreateNumber.exit

9:                                                ; preds = %5
  %10 = fcmp ugt double %2, 0xC1E0000000000000
  br i1 %10, label %11, label %cJSON_CreateNumber.exit

11:                                               ; preds = %9
  %12 = fptosi double %2 to i32
  br label %cJSON_CreateNumber.exit

cJSON_CreateNumber.exit:                          ; preds = %5, %9, %11
  %.sink.i = phi i32 [ %12, %11 ], [ 2147483647, %5 ], [ -2147483648, %9 ]
  %13 = getelementptr inbounds nuw i8, ptr %4, i64 40
  store i32 %.sink.i, ptr %13, align 8, !tbaa !27
  %14 = icmp eq ptr %0, null
  %15 = icmp eq ptr %1, null
  %or.cond.i = or i1 %14, %15
  %16 = icmp eq ptr %0, %4
  %or.cond34.i = or i1 %or.cond.i, %16
  br i1 %or.cond34.i, label %cJSON_CreateNumber.exit.thread, label %17

17:                                               ; preds = %cJSON_CreateNumber.exit
  %18 = tail call i64 @strlen(ptr noundef nonnull readonly dereferenceable(1) %1) #32
  %19 = add i64 %18, 1
  %20 = load ptr, ptr @global_hooks, align 8, !tbaa !18
  %21 = tail call ptr %20(i64 noundef %19) #31
  %22 = icmp eq ptr %21, null
  br i1 %22, label %cJSON_CreateNumber.exit.thread, label %23

23:                                               ; preds = %17
  tail call void @llvm.memcpy.p0.p0.i64(ptr nonnull align 1 %21, ptr nonnull readonly align 1 %1, i64 %19, i1 false)
  %24 = load i32, ptr %6, align 8, !tbaa !11
  %25 = and i32 %24, -513
  %26 = and i32 %24, 512
  %.not32.i = icmp eq i32 %26, 0
  br i1 %.not32.i, label %27, label %32

27:                                               ; preds = %23
  %28 = getelementptr inbounds nuw i8, ptr %4, i64 56
  %29 = load ptr, ptr %28, align 8, !tbaa !26
  %.not33.i = icmp eq ptr %29, null
  br i1 %.not33.i, label %32, label %30

30:                                               ; preds = %27
  %31 = load ptr, ptr getelementptr inbounds nuw (i8, ptr @global_hooks, i64 8), align 8, !tbaa !22
  tail call void %31(ptr noundef nonnull %29) #31
  br label %32

32:                                               ; preds = %30, %27, %23
  %33 = getelementptr inbounds nuw i8, ptr %4, i64 56
  store ptr %21, ptr %33, align 8, !tbaa !26
  store i32 %25, ptr %6, align 8, !tbaa !11
  %34 = getelementptr inbounds nuw i8, ptr %0, i64 16
  %35 = load ptr, ptr %34, align 8, !tbaa !25
  %36 = icmp eq ptr %35, null
  br i1 %36, label %37, label %39

37:                                               ; preds = %32
  store ptr %4, ptr %34, align 8, !tbaa !25
  %38 = getelementptr inbounds nuw i8, ptr %4, i64 8
  store ptr %4, ptr %38, align 8, !tbaa !40
  store ptr null, ptr %4, align 8, !tbaa !24
  br label %add_item_to_object.exit

39:                                               ; preds = %32
  %40 = getelementptr inbounds nuw i8, ptr %35, i64 8
  %41 = load ptr, ptr %40, align 8, !tbaa !40
  %.not.i.i7 = icmp eq ptr %41, null
  br i1 %.not.i.i7, label %add_item_to_object.exit, label %42

42:                                               ; preds = %39
  store ptr %4, ptr %41, align 8, !tbaa !24
  %43 = getelementptr inbounds nuw i8, ptr %4, i64 8
  store ptr %41, ptr %43, align 8, !tbaa !40
  store ptr %4, ptr %40, align 8, !tbaa !40
  br label %add_item_to_object.exit

cJSON_CreateNumber.exit.thread:                   ; preds = %3, %cJSON_CreateNumber.exit, %17
  tail call void @cJSON_Delete(ptr noundef %4)
  br label %add_item_to_object.exit

add_item_to_object.exit:                          ; preds = %42, %39, %37, %cJSON_CreateNumber.exit.thread
  %.0 = phi ptr [ null, %cJSON_CreateNumber.exit.thread ], [ %4, %37 ], [ %4, %39 ], [ %4, %42 ]
  ret ptr %.0
}